target datalayout = "e-m:e-p270:32:32-p271:32:32-p272:64:64-i64:64-i128:128-f80:128-n8:16:32:64-S128"
target triple = "x86_64-pc-linux-gnu"

%struct.Int128_ = type { i64, i64 }
%struct.Int = type { %struct.Int128_, i32 }

; Function Attrs: nounwind uwtable
define dso_local { i64, i64 } @i128_from_float_signed(double noundef %0) #0 {
  %2 = alloca %struct.Int128_, align 8
  %3 = alloca double, align 8
  store double %0, ptr %3, align 8
  %4 = getelementptr inbounds %struct.Int128_, ptr %2, i32 0, i32 0
  store i64 0, ptr %4, align 8
  %5 = getelementptr inbounds %struct.Int128_, ptr %2, i32 0, i32 1
  %6 = load double, ptr %3, align 8
  %7 = fptosi double %6 to i64
  store i64 %7, ptr %5, align 8
  %8 = load { i64, i64 }, ptr %2, align 8
  ret { i64, i64 } %8
}

; Function Attrs: nounwind uwtable
define dso_local { i64, i64 } @i128_from_float_unsigned(double noundef %0) #0 {
  %2 = alloca %struct.Int128_, align 8
  %3 = alloca double, align 8
  store double %0, ptr %3, align 8
  %4 = getelementptr inbounds %struct.Int128_, ptr %2, i32 0, i32 0
  store i64 0, ptr %4, align 8
  %5 = getelementptr inbounds %struct.Int128_, ptr %2, i32 0, i32 1
  %6 = load double, ptr %3, align 8
  %7 = fptoui double %6 to i64
  store i64 %7, ptr %5, align 8
  %8 = load { i64, i64 }, ptr %2, align 8
  ret { i64, i64 } %8
}

; Function Attrs: nounwind uwtable
define dso_local void @int_from_real(ptr dead_on_unwind noalias writable sret(%struct.Int) align 8 %0, double noundef %1, i32 noundef %2) #0 {
  %4 = alloca i32, align 4
  %5 = alloca double, align 8
  %6 = alloca i32, align 4
  store double %1, ptr %5, align 8
  store i32 %2, ptr %6, align 4
  %7 = getelementptr inbounds %struct.Int, ptr %0, i32 0, i32 0
  %8 = load i32, ptr %6, align 4
  store i32 %8, ptr %4, align 4
  %9 = load i32, ptr %4, align 4
  %10 = icmp uge i32 %9, 8
  br i1 %10, label %11, label %14

11:                                               ; preds = %3
  %12 = load i32, ptr %4, align 4
  %13 = icmp ule i32 %12, 12
  br label %14

14:                                               ; preds = %11, %3
  %15 = phi i1 [ false, %3 ], [ %13, %11 ]
  br i1 %15, label %16, label %23

16:                                               ; preds = %14
  %17 = load double, ptr %5, align 8
  %18 = call { i64, i64 } @i128_from_float_unsigned(double noundef %17)
  %19 = getelementptr inbounds { i64, i64 }, ptr %7, i32 0, i32 0
  %20 = extractvalue { i64, i64 } %18, 0
  store i64 %20, ptr %19, align 8
  %21 = getelementptr inbounds { i64, i64 }, ptr %7, i32 0, i32 1
  %22 = extractvalue { i64, i64 } %18, 1
  store i64 %22, ptr %21, align 8
  br label %30

23:                                               ; preds = %14
  %24 = load double, ptr %5, align 8
  %25 = call { i64, i64 } @i128_from_float_signed(double noundef %24)
  %26 = getelementptr inbounds { i64, i64 }, ptr %7, i32 0, i32 0
  %27 = extractvalue { i64, i64 } %25, 0
  store i64 %27, ptr %26, align 8
  %28 = getelementptr inbounds { i64, i64 }, ptr %7, i32 0, i32 1
  %29 = extractvalue { i64, i64 } %25, 1
  store i64 %29, ptr %28, align 8
  br label %30

30:                                               ; preds = %23, %16
  %31 = getelementptr inbounds %struct.Int, ptr %0, i32 0, i32 1
  %32 = load i32, ptr %6, align 4
  store i32 %32, ptr %31, align 8
  ret void
}