; Function Attrs: mustprogress nofree norecurse nosync nounwind willreturn memory(argmem: write) uwtable
define dso_local void @int_from_real(ptr dead_on_unwind noalias writable writeonly sret(%struct.Int) align 8 captures(none) initializes((0, 20)) %0, double noundef %1, i32 noundef %2) local_unnamed_addr #5 {
  %4 = add i32 %2, -8
  %5 = icmp ult i32 %4, 5
  %6 = fptoui double %1 to i64
  %7 = fptosi double %1 to i64
  %.sink = select i1 %5, i64 %6, i64 %7
  store i64 0, ptr %0, align 8
  %8 = getelementptr inbounds nuw i8, ptr %0, i64 8
  store i64 %.sink, ptr %8, align 8
  %9 = getelementptr inbounds nuw i8, ptr %0, i64 16
  store i32 %2, ptr %9, align 8
  ret void
}